target datalayout = "e-m:e-p270:32:32-p271:32:32-p272:64:64-i64:64-i128:128-f80:128-n8:16:32:64-S128"
target triple = "x86_64-pc-linux-gnu"

; Function Attrs: mustprogress nounwind uwtable
define hidden noundef i32 @_ZN10VectorNode13scalar_opcodeEi9BasicType(i32 noundef %0, i8 noundef zeroext %1) #1 align 2 {
  %3 = alloca i32, align 4
  %4 = alloca i32, align 4
  %5 = alloca i8, align 1
  store i32 %0, ptr %4, align 4
  store i8 %1, ptr %5, align 1
  %6 = load i32, ptr %4, align 4
  switch i32 %6, label %47 [
    i32 359, label %7
    i32 358, label %7
    i32 361, label %8
    i32 360, label %8
    i32 375, label %9
    i32 374, label %9
    i32 377, label %10
    i32 376, label %10
    i32 414, label %11
    i32 413, label %11
    i32 416, label %17
    i32 415, label %17
    i32 418, label %23
    i32 417, label %23
    i32 421, label %29
    i32 419, label %29
    i32 422, label %38
    i32 420, label %38
  ]

7:                                                ; preds = %2, %2
  store i32 23, ptr %3, align 4
  br label %48

8:                                                ; preds = %2, %2
  store i32 24, ptr %3, align 4
  br label %48

9:                                                ; preds = %2, %2
  store i32 246, ptr %3, align 4
  br label %48

10:                                               ; preds = %2, %2
  store i32 247, ptr %3, align 4
  br label %48

11:                                               ; preds = %2, %2
  %12 = load i8, ptr %5, align 1
  %13 = zext i8 %12 to i32
  switch i32 %13, label %16 [
    i32 4, label %14
    i32 5, label %14
    i32 8, label %14
    i32 9, label %14
    i32 10, label %14
    i32 11, label %15
  ]

14:                                               ; preds = %11, %11, %11, %11, %11
  store i32 28, ptr %3, align 4
  br label %48

15:                                               ; preds = %11
  store i32 29, ptr %3, align 4
  br label %48

16:                                               ; preds = %11
  store i32 0, ptr %3, align 4
  br label %48

17:                                               ; preds = %2, %2
  %18 = load i8, ptr %5, align 1
  %19 = zext i8 %18 to i32
  switch i32 %19, label %22 [
    i32 4, label %20
    i32 5, label %20
    i32 8, label %20
    i32 9, label %20
    i32 10, label %20
    i32 11, label %21
  ]

20:                                               ; preds = %17, %17, %17, %17, %17
  store i32 262, ptr %3, align 4
  br label %48

21:                                               ; preds = %17
  store i32 263, ptr %3, align 4
  br label %48

22:                                               ; preds = %17
  store i32 0, ptr %3, align 4
  br label %48

23:                                               ; preds = %2, %2
  %24 = load i8, ptr %5, align 1
  %25 = zext i8 %24 to i32
  switch i32 %25, label %28 [
    i32 4, label %26
    i32 5, label %26
    i32 8, label %26
    i32 9, label %26
    i32 10, label %26
    i32 11, label %27
  ]

26:                                               ; preds = %23, %23, %23, %23, %23
  store i32 353, ptr %3, align 4
  br label %48

27:                                               ; preds = %23
  store i32 354, ptr %3, align 4
  br label %48

28:                                               ; preds = %23
  store i32 0, ptr %3, align 4
  br label %48

29:                                               ; preds = %2, %2
  %30 = load i8, ptr %5, align 1
  %31 = zext i8 %30 to i32
  switch i32 %31, label %37 [
    i32 4, label %32
    i32 5, label %32
    i32 8, label %33
    i32 9, label %33
    i32 10, label %33
    i32 11, label %34
    i32 6, label %35
    i32 7, label %36
  ]

32:                                               ; preds = %29, %29
  store i32 0, ptr %3, align 4
  br label %48

33:                                               ; preds = %29, %29, %29
  store i32 224, ptr %3, align 4
  br label %48

34:                                               ; preds = %29
  store i32 225, ptr %3, align 4
  br label %48

35:                                               ; preds = %29
  store i32 226, ptr %3, align 4
  br label %48

36:                                               ; preds = %29
  store i32 227, ptr %3, align 4
  br label %48

37:                                               ; preds = %29
  store i32 0, ptr %3, align 4
  br label %48

38:                                               ; preds = %2, %2
  %39 = load i8, ptr %5, align 1
  %40 = zext i8 %39 to i32
  switch i32 %40, label %46 [
    i32 4, label %41
    i32 5, label %41
    i32 8, label %42
    i32 9, label %42
    i32 10, label %42
    i32 11, label %43
    i32 6, label %44
    i32 7, label %45
  ]

41:                                               ; preds = %38, %38
  store i32 0, ptr %3, align 4
  br label %48

42:                                               ; preds = %38, %38, %38
  store i32 209, ptr %3, align 4
  br label %48

43:                                               ; preds = %38
  store i32 210, ptr %3, align 4
  br label %48

44:                                               ; preds = %38
  store i32 212, ptr %3, align 4
  br label %48

45:                                               ; preds = %38
  store i32 211, ptr %3, align 4
  br label %48

46:                                               ; preds = %38
  store i32 0, ptr %3, align 4
  br label %48

47:                                               ; preds = %2
  store i32 0, ptr %3, align 4
  br label %48

48:                                               ; preds = %47, %46, %45, %44, %43, %42, %41, %37, %36, %35, %34, %33, %32, %28, %27, %26, %22, %21, %20, %16, %15, %14, %10, %9, %8, %7
  %49 = load i32, ptr %3, align 4
  ret i32 %49
}