; Function Attrs: mustprogress nofree norecurse nosync nounwind willreturn memory(none) uwtable
define hidden noundef range(i32 0, 355) i32 @_ZN10VectorNode13scalar_opcodeEi9BasicType(i32 noundef %0, i8 noundef zeroext %1) local_unnamed_addr #0 align 2 {
  switch i32 %0, label %16 [
    i32 359, label %22
    i32 358, label %22
    i32 361, label %3
    i32 360, label %3
    i32 375, label %4
    i32 374, label %4
    i32 377, label %5
    i32 376, label %5
    i32 414, label %6
    i32 413, label %6
    i32 416, label %8
    i32 415, label %8
    i32 418, label %10
    i32 417, label %10
    i32 421, label %12
    i32 419, label %12
    i32 422, label %14
    i32 420, label %14
  ]

3:                                                ; preds = %2, %2
  br label %22

4:                                                ; preds = %2, %2
  br label %22

5:                                                ; preds = %2, %2
  br label %22

6:                                                ; preds = %2, %2
  %switch.tableidx = add i8 %1, -4
  %7 = icmp ult i8 %switch.tableidx, 8
  br i1 %7, label %switch.lookup, label %22

8:                                                ; preds = %2, %2
  %switch.tableidx8 = add i8 %1, -4
  %9 = icmp ult i8 %switch.tableidx8, 8
  br i1 %9, label %switch.lookup7, label %22

10:                                               ; preds = %2, %2
  %switch.tableidx12 = add i8 %1, -4
  %11 = icmp ult i8 %switch.tableidx12, 8
  br i1 %11, label %switch.lookup11, label %22

12:                                               ; preds = %2, %2
  %switch.tableidx16 = add i8 %1, -6
  %13 = icmp ult i8 %switch.tableidx16, 6
  br i1 %13, label %switch.lookup15, label %22

14:                                               ; preds = %2, %2
  %switch.tableidx20 = add i8 %1, -6
  %15 = icmp ult i8 %switch.tableidx20, 6
  br i1 %15, label %switch.lookup19, label %22

16:                                               ; preds = %2
  br label %22

switch.lookup:                                    ; preds = %6
  %17 = zext nneg i8 %switch.tableidx to i64
  %switch.gep = getelementptr inbounds [8 x i32], ptr @switch.table._ZN10VectorNode13scalar_opcodeEi9BasicType, i64 0, i64 %17
  %switch.load = load i32, ptr %switch.gep, align 4
  br label %22

switch.lookup7:                                   ; preds = %8
  %18 = zext nneg i8 %switch.tableidx8 to i64
  %switch.gep9 = getelementptr inbounds [8 x i32], ptr @switch.table._ZN10VectorNode13scalar_opcodeEi9BasicType.7, i64 0, i64 %18
  %switch.load10 = load i32, ptr %switch.gep9, align 4
  br label %22

switch.lookup11:                                  ; preds = %10
  %19 = zext nneg i8 %switch.tableidx12 to i64
  %switch.gep13 = getelementptr inbounds [8 x i32], ptr @switch.table._ZN10VectorNode13scalar_opcodeEi9BasicType.8, i64 0, i64 %19
  %switch.load14 = load i32, ptr %switch.gep13, align 4
  br label %22

switch.lookup15:                                  ; preds = %12
  %20 = zext nneg i8 %switch.tableidx16 to i64
  %switch.gep17 = getelementptr inbounds [6 x i32], ptr @switch.table._ZN10VectorNode13scalar_opcodeEi9BasicType.9, i64 0, i64 %20
  %switch.load18 = load i32, ptr %switch.gep17, align 4
  br label %22

switch.lookup19:                                  ; preds = %14
  %21 = zext nneg i8 %switch.tableidx20 to i64
  %switch.gep21 = getelementptr inbounds [6 x i32], ptr @switch.table._ZN10VectorNode13scalar_opcodeEi9BasicType.10, i64 0, i64 %21
  %switch.load22 = load i32, ptr %switch.gep21, align 4
  br label %22

22:                                               ; preds = %switch.lookup19, %14, %switch.lookup15, %12, %10, %switch.lookup11, %8, %switch.lookup7, %6, %switch.lookup, %2, %2, %16, %5, %4, %3
  %.0 = phi i32 [ 0, %16 ], [ 247, %5 ], [ 246, %4 ], [ 24, %3 ], [ 23, %2 ], [ 23, %2 ], [ 0, %12 ], [ 0, %14 ], [ %switch.load, %switch.lookup ], [ 0, %6 ], [ %switch.load10, %switch.lookup7 ], [ 0, %8 ], [ %switch.load14, %switch.lookup11 ], [ 0, %10 ], [ %switch.load18, %switch.lookup15 ], [ %switch.load22, %switch.lookup19 ]
  ret i32 %.0
}